target datalayout = "e-m:e-p270:32:32-p271:32:32-p272:64:64-i64:64-i128:128-f80:128-n8:16:32:64-S128"
target triple = "x86_64-pc-linux-gnu"

%"class.std::__cxx11::basic_string" = type { %"struct.std::__cxx11::basic_string<char>::_Alloc_hider", i64, %union.anon }
%"struct.std::__cxx11::basic_string<char>::_Alloc_hider" = type { ptr }
%union.anon = type { i64, [8 x i8] }
%"class.std::shared_ptr" = type { %"class.std::__shared_ptr" }
%"class.std::__shared_ptr" = type { ptr, %"class.std::__shared_count" }
%"class.std::__shared_count" = type { ptr }
%"class.std::shared_ptr.5" = type { %"class.std::__shared_ptr.6" }
%"class.std::__shared_ptr.6" = type { ptr, %"class.std::__shared_count" }
%"class.rocksdb::TransactionBaseImpl" = type { %"class.rocksdb::Transaction", ptr, ptr, %"struct.rocksdb::WriteOptions", ptr, ptr, i64, %"class.std::shared_ptr.5", i64, i64, i64, i64, %"class.rocksdb::WriteBatchWithIndex", %"class.std::unique_ptr.16", %"class.std::unique_ptr.24", %"class.rocksdb::WriteBatch", i8, i8, %"class.std::shared_ptr" }
%"class.rocksdb::Transaction" = type { ptr, i64, %"class.std::__cxx11::basic_string", %"struct.std::atomic", i64 }
%"struct.std::atomic" = type { i32 }
%"struct.rocksdb::WriteOptions" = type <{ i8, i8, i8, i8, i8, i8, [2 x i8], i32, [4 x i8], i64, i8, [7 x i8] }>
%"class.rocksdb::WriteBatchWithIndex" = type { %"class.rocksdb::WriteBatchBase", %"class.std::unique_ptr.8" }
%"class.rocksdb::WriteBatchBase" = type { ptr }
%"class.std::unique_ptr.8" = type { %"struct.std::__uniq_ptr_data.9" }
%"struct.std::__uniq_ptr_data.9" = type { %"class.std::__uniq_ptr_impl.10" }
%"class.std::__uniq_ptr_impl.10" = type { %"class.std::tuple.11" }
%"class.std::tuple.11" = type { %"struct.std::_Tuple_impl.12" }
%"struct.std::_Tuple_impl.12" = type { %"struct.std::_Head_base.15" }
%"struct.std::_Head_base.15" = type { ptr }
%"class.std::unique_ptr.16" = type { %"struct.std::__uniq_ptr_data.17" }
%"struct.std::__uniq_ptr_data.17" = type { %"class.std::__uniq_ptr_impl.18" }
%"class.std::__uniq_ptr_impl.18" = type { %"class.std::tuple.19" }
%"class.std::tuple.19" = type { %"struct.std::_Tuple_impl.20" }
%"struct.std::_Tuple_impl.20" = type { %"struct.std::_Head_base.23" }
%"struct.std::_Head_base.23" = type { ptr }
%"class.std::unique_ptr.24" = type { %"struct.std::__uniq_ptr_data.25" }
%"struct.std::__uniq_ptr_data.25" = type { %"class.std::__uniq_ptr_impl.26" }
%"class.std::__uniq_ptr_impl.26" = type { %"class.std::tuple.27" }
%"class.std::tuple.27" = type { %"struct.std::_Tuple_impl.28" }
%"struct.std::_Tuple_impl.28" = type { %"struct.std::_Head_base.31" }
%"struct.std::_Head_base.31" = type { ptr }
%"class.rocksdb::WriteBatch" = type { %"class.rocksdb::WriteBatchBase", %"class.std::unique_ptr.32", %"struct.rocksdb::SavePoint", i8, i8, i8, %"struct.std::atomic.40", i64, %"class.std::unique_ptr.41", i64, i8, %"class.std::unordered_map", %"class.std::__cxx11::basic_string" }
%"class.std::unique_ptr.32" = type { %"struct.std::__uniq_ptr_data.33" }
%"struct.std::__uniq_ptr_data.33" = type { %"class.std::__uniq_ptr_impl.34" }
%"class.std::__uniq_ptr_impl.34" = type { %"class.std::tuple.35" }
%"class.std::tuple.35" = type { %"struct.std::_Tuple_impl.36" }
%"struct.std::_Tuple_impl.36" = type { %"struct.std::_Head_base.39" }
%"struct.std::_Head_base.39" = type { ptr }
%"struct.rocksdb::SavePoint" = type { i64, i32, i32 }
%"struct.std::atomic.40" = type { %"struct.std::__atomic_base" }
%"struct.std::__atomic_base" = type { i32 }
%"class.std::unique_ptr.41" = type { %"struct.std::__uniq_ptr_data.42" }
%"struct.std::__uniq_ptr_data.42" = type { %"class.std::__uniq_ptr_impl.43" }
%"class.std::__uniq_ptr_impl.43" = type { %"class.std::tuple.44" }
%"class.std::tuple.44" = type { %"struct.std::_Tuple_impl.45" }
%"struct.std::_Tuple_impl.45" = type { %"struct.std::_Head_base.48" }
%"struct.std::_Head_base.48" = type { ptr }
%"class.std::unordered_map" = type { %"class.std::_Hashtable" }
%"class.std::_Hashtable" = type { ptr, i64, %"struct.std::__detail::_Hash_node_base", i64, %"struct.std::__detail::_Prime_rehash_policy", ptr }
%"struct.std::__detail::_Hash_node_base" = type { ptr }
%"struct.std::__detail::_Prime_rehash_policy" = type { float, i64 }

; Function Attrs: mustprogress uwtable
define noundef ptr @_ZN7rocksdb19TransactionBaseImpl11GetIteratorERKNS_11ReadOptionsEPNS_18ColumnFamilyHandleE(ptr noundef nonnull align 8 dereferenceable(400) %0, ptr noundef nonnull align 8 dereferenceable(168) %1, ptr noundef %2) unnamed_addr #5 align 2 {
  %4 = alloca ptr, align 8
  %5 = alloca ptr, align 8
  %6 = alloca ptr, align 8
  %7 = alloca ptr, align 8
  store ptr %0, ptr %4, align 8, !tbaa !64
  store ptr %1, ptr %5, align 8, !tbaa !565
  store ptr %2, ptr %6, align 8, !tbaa !538
  %8 = load ptr, ptr %4, align 8
  call void @llvm.lifetime.start.p0(i64 8, ptr %7) #4
  %9 = getelementptr inbounds nuw %"class.rocksdb::TransactionBaseImpl", ptr %8, i32 0, i32 1
  %10 = load ptr, ptr %9, align 8, !tbaa !72
  %11 = load ptr, ptr %5, align 8, !tbaa !565
  %12 = load ptr, ptr %6, align 8, !tbaa !538
  %13 = load ptr, ptr %10, align 8, !tbaa !58
  %14 = getelementptr inbounds ptr, ptr %13, i64 57
  %15 = load ptr, ptr %14, align 8
  %16 = call noundef ptr %15(ptr noundef nonnull align 8 dereferenceable(8) %10, ptr noundef nonnull align 8 dereferenceable(168) %11, ptr noundef %12)
  store ptr %16, ptr %7, align 8, !tbaa !616
  %17 = getelementptr inbounds nuw %"class.rocksdb::TransactionBaseImpl", ptr %8, i32 0, i32 12
  %18 = load ptr, ptr %6, align 8, !tbaa !538
  %19 = load ptr, ptr %7, align 8, !tbaa !616
  %20 = load ptr, ptr %5, align 8, !tbaa !565
  %21 = call noundef ptr @_ZN7rocksdb19WriteBatchWithIndex19NewIteratorWithBaseEPNS_18ColumnFamilyHandleEPNS_8IteratorEPKNS_11ReadOptionsE(ptr noundef nonnull align 8 dereferenceable(16) %17, ptr noundef %18, ptr noundef %19, ptr noundef %20)
  call void @llvm.lifetime.end.p0(i64 8, ptr %7) #4
  ret ptr %21
}